target datalayout = "e-m:e-p270:32:32-p271:32:32-p272:64:64-i64:64-i128:128-f80:128-n8:16:32:64-S128"
target triple = "x86_64-pc-linux-gnu"

%struct.archive_cryptor = type { ptr, ptr, ptr, ptr, ptr, ptr, ptr }
%struct.archive_hmac = type { ptr, ptr, ptr, ptr }
%struct.archive_read = type { %struct.archive, ptr, i32, i64, i64, %struct.archive_read_client, [16 x %struct.archive_read_filter_bidder], ptr, i32, i64, i32, i32, [16 x %struct.archive_format_descriptor], ptr, ptr, ptr, %struct.anon }
%struct.archive = type { i32, i32, ptr, i32, ptr, i32, i32, ptr, %struct.archive_string, ptr, i32, i32, ptr, ptr, i64, i64, i64, i8, i64 }
%struct.archive_string = type { ptr, i64, i64 }
%struct.archive_read_client = type { ptr, ptr, ptr, ptr, ptr, ptr, i32, i32, i64, ptr }
%struct.archive_read_filter_bidder = type { ptr, ptr, ptr }
%struct.archive_format_descriptor = type { ptr, ptr, ptr, ptr, ptr, ptr, ptr, ptr, ptr, ptr, ptr }
%struct.anon = type { ptr, ptr, i32, ptr, ptr }
%struct.zip = type { %struct.archive_string, i64, i64, i64, i64, i32, ptr, %struct.archive_rb_tree, %struct.archive_rb_tree, i64, ptr, i64, i64, i64, i64, ptr, i8, i8, i8, ptr, i64, %struct.z_stream_s, i8, %struct.lzma_stream, i8, %struct.bz_stream, i8, ptr, i8, %struct.IByteIn, i64, %struct.CPpmd8, i8, i8, ptr, ptr, ptr, i32, i32, i8, ptr, ptr, i64, i64, i64, %struct.trad_enc_ctx, i8, %struct.archive_crypto_ctx, i8, ptr, i8, i32, i32, i32, i32, i32, i32, i32, ptr, ptr, ptr }
%struct.archive_rb_tree = type { ptr, ptr }
%struct.z_stream_s = type { ptr, i32, i64, ptr, i32, i64, ptr, ptr, ptr, ptr, ptr, i32, i64, i64 }
%struct.lzma_stream = type { ptr, i64, i64, ptr, i64, i64, ptr, ptr, ptr, ptr, ptr, ptr, i64, i64, i64, i64, i32, i32 }
%struct.bz_stream = type { ptr, i32, i32, i32, ptr, i32, i32, i32, ptr, ptr, ptr, ptr }
%struct.IByteIn = type { ptr, ptr }
%struct.CPpmd8 = type { ptr, ptr, ptr, i32, i32, i32, i32, i32, i32, i32, i32, ptr, ptr, ptr, ptr, ptr, i32, i32, i32, i32, i32, %union.anon, [38 x i8], [128 x i8], [38 x i32], [38 x i32], [256 x i8], [260 x i8], %struct.CPpmd_See, [24 x [32 x %struct.CPpmd_See]], [25 x [64 x i16]] }
%union.anon = type { ptr }
%struct.CPpmd_See = type { i16, i8, i8 }
%struct.trad_enc_ctx = type { [3 x i32] }
%struct.archive_crypto_ctx = type { ptr, ptr, [32 x i8], i32, [16 x i8], [16 x i8], i32 }
%struct.zip_entry = type { %struct.archive_rb_node, ptr, i64, i64, i64, i64, i64, %struct.archive_string, i64, i64, i64, i32, i16, i16, i8, i8, i8, i8, %struct.anon.0 }
%struct.archive_rb_node = type { [2 x ptr], i64 }
%struct.anon.0 = type { i32, i32, i8 }

@__archive_cryptor = external constant %struct.archive_cryptor, align 8
@__archive_hmac = external constant %struct.archive_hmac, align 8
@.str.40 = private unnamed_addr constant [24 x i8] c"Truncated ZIP file data\00", align 1
@.str.82 = private unnamed_addr constant [24 x i8] c"Corrupted ZIP file data\00", align 1
@.str.84 = private unnamed_addr constant [21 x i8] c"Incorrect passphrase\00", align 1
@.str.85 = private unnamed_addr constant [35 x i8] c"Passphrase required for this entry\00", align 1
@.str.86 = private unnamed_addr constant [56 x i8] c"Decryption is unsupported due to lack of crypto library\00", align 1
@.str.87 = private unnamed_addr constant [31 x i8] c"Too many incorrect passphrases\00", align 1
@.str.88 = private unnamed_addr constant [31 x i8] c"Failed to initialize HMAC-SHA1\00", align 1

; Function Attrs: nounwind uwtable
define internal i32 @init_WinZip_AES_decryption(ptr noundef %0) #0 {
  %2 = alloca i32, align 4
  %3 = alloca ptr, align 8
  %4 = alloca ptr, align 8
  %5 = alloca ptr, align 8
  %6 = alloca ptr, align 8
  %7 = alloca i64, align 8
  %8 = alloca i64, align 8
  %9 = alloca [66 x i8], align 16
  %10 = alloca i32, align 4
  %11 = alloca i32, align 4
  %12 = alloca i32, align 4
  %13 = alloca ptr, align 8
  store ptr %0, ptr %3, align 8, !tbaa !11
  call void @llvm.lifetime.start.p0(i64 8, ptr %4) #11
  %14 = load ptr, ptr %3, align 8, !tbaa !11
  %15 = getelementptr inbounds nuw %struct.archive_read, ptr %14, i32 0, i32 13
  %16 = load ptr, ptr %15, align 8, !tbaa !47
  %17 = getelementptr inbounds nuw %struct.archive_format_descriptor, ptr %16, i32 0, i32 0
  %18 = load ptr, ptr %17, align 8, !tbaa !60
  store ptr %18, ptr %4, align 8, !tbaa !13
  call void @llvm.lifetime.start.p0(i64 8, ptr %5) #11
  call void @llvm.lifetime.start.p0(i64 8, ptr %6) #11
  call void @llvm.lifetime.start.p0(i64 8, ptr %7) #11
  call void @llvm.lifetime.start.p0(i64 8, ptr %8) #11
  call void @llvm.lifetime.start.p0(i64 66, ptr %9) #11
  call void @llvm.lifetime.start.p0(i64 4, ptr %10) #11
  call void @llvm.lifetime.start.p0(i64 4, ptr %11) #11
  %19 = load ptr, ptr %4, align 8, !tbaa !13
  %20 = getelementptr inbounds nuw %struct.zip, ptr %19, i32 0, i32 48
  %21 = load i8, ptr %20, align 8, !tbaa !71
  %22 = sext i8 %21 to i32
  %23 = icmp ne i32 %22, 0
  br i1 %23, label %30, label %24

24:                                               ; preds = %1
  %25 = load ptr, ptr %4, align 8, !tbaa !13
  %26 = getelementptr inbounds nuw %struct.zip, ptr %25, i32 0, i32 50
  %27 = load i8, ptr %26, align 8, !tbaa !74
  %28 = sext i8 %27 to i32
  %29 = icmp ne i32 %28, 0
  br i1 %29, label %30, label %31

30:                                               ; preds = %24, %1
  store i32 0, ptr %2, align 4
  store i32 1, ptr %12, align 4
  br label %208

31:                                               ; preds = %24
  %32 = load ptr, ptr %4, align 8, !tbaa !13
  %33 = getelementptr inbounds nuw %struct.zip, ptr %32, i32 0, i32 10
  %34 = load ptr, ptr %33, align 8, !tbaa !70
  %35 = getelementptr inbounds nuw %struct.zip_entry, ptr %34, i32 0, i32 18
  %36 = getelementptr inbounds nuw %struct.anon.0, ptr %35, i32 0, i32 1
  %37 = load i32, ptr %36, align 4, !tbaa !155
  switch i32 %37, label %41 [
    i32 1, label %38
    i32 2, label %39
    i32 3, label %40
  ]

38:                                               ; preds = %31
  store i64 8, ptr %8, align 8, !tbaa !43
  store i64 16, ptr %7, align 8, !tbaa !43
  br label %42

39:                                               ; preds = %31
  store i64 12, ptr %8, align 8, !tbaa !43
  store i64 24, ptr %7, align 8, !tbaa !43
  br label %42

40:                                               ; preds = %31
  store i64 16, ptr %8, align 8, !tbaa !43
  store i64 32, ptr %7, align 8, !tbaa !43
  br label %42

41:                                               ; preds = %31
  br label %205

42:                                               ; preds = %40, %39, %38
  %43 = load ptr, ptr %3, align 8, !tbaa !11
  %44 = load i64, ptr %8, align 8, !tbaa !43
  %45 = add i64 %44, 2
  %46 = call ptr @__archive_read_ahead(ptr noundef %43, i64 noundef %45, ptr noundef null)
  store ptr %46, ptr %5, align 8, !tbaa !44
  %47 = load ptr, ptr %5, align 8, !tbaa !44
  %48 = icmp eq ptr %47, null
  br i1 %48, label %49, label %50

49:                                               ; preds = %42
  br label %202

50:                                               ; preds = %42
  store i32 0, ptr %10, align 4, !tbaa !9
  br label %51

51:                                               ; preds = %117, %50
  call void @llvm.lifetime.start.p0(i64 8, ptr %13) #11
  %52 = load ptr, ptr %3, align 8, !tbaa !11
  %53 = call ptr @__archive_read_next_passphrase(ptr noundef %52)
  store ptr %53, ptr %13, align 8, !tbaa !45
  %54 = load ptr, ptr %13, align 8, !tbaa !45
  %55 = icmp eq ptr %54, null
  br i1 %55, label %56, label %62

56:                                               ; preds = %51
  %57 = load ptr, ptr %3, align 8, !tbaa !11
  %58 = getelementptr inbounds nuw %struct.archive_read, ptr %57, i32 0, i32 0
  %59 = load i32, ptr %10, align 4, !tbaa !9
  %60 = icmp sgt i32 %59, 0
  %61 = select i1 %60, ptr @.str.84, ptr @.str.85
  call void (ptr, i32, ptr, ...) @archive_set_error(ptr noundef %58, i32 noundef -1, ptr noundef %61)
  store i32 -25, ptr %2, align 4
  store i32 1, ptr %12, align 4
  br label %114

62:                                               ; preds = %51
  %63 = getelementptr inbounds [66 x i8], ptr %9, i64 0, i64 0
  call void @llvm.memset.p0.i64(ptr align 16 %63, i8 0, i64 66, i1 false)
  %64 = load ptr, ptr @__archive_cryptor, align 8, !tbaa !193
  %65 = load ptr, ptr %13, align 8, !tbaa !45
  %66 = load ptr, ptr %13, align 8, !tbaa !45
  %67 = call i64 @strlen(ptr noundef %66) #13
  %68 = load ptr, ptr %5, align 8, !tbaa !44
  %69 = load i64, ptr %8, align 8, !tbaa !43
  %70 = getelementptr inbounds [66 x i8], ptr %9, i64 0, i64 0
  %71 = load i64, ptr %7, align 8, !tbaa !43
  %72 = mul i64 %71, 2
  %73 = add i64 %72, 2
  %74 = call i32 %64(ptr noundef %65, i64 noundef %67, ptr noundef %68, i64 noundef %69, i32 noundef 1000, ptr noundef %70, i64 noundef %73)
  store i32 %74, ptr %11, align 4, !tbaa !9
  %75 = load i32, ptr %11, align 4, !tbaa !9
  %76 = icmp ne i32 %75, 0
  br i1 %76, label %77, label %80

77:                                               ; preds = %62
  %78 = load ptr, ptr %3, align 8, !tbaa !11
  %79 = getelementptr inbounds nuw %struct.archive_read, ptr %78, i32 0, i32 0
  call void (ptr, i32, ptr, ...) @archive_set_error(ptr noundef %79, i32 noundef -1, ptr noundef @.str.86)
  store i32 -25, ptr %2, align 4
  store i32 1, ptr %12, align 4
  br label %114

80:                                               ; preds = %62
  %81 = load ptr, ptr %5, align 8, !tbaa !44
  %82 = load i64, ptr %8, align 8, !tbaa !43
  %83 = getelementptr inbounds nuw i8, ptr %81, i64 %82
  store ptr %83, ptr %6, align 8, !tbaa !45
  %84 = load i64, ptr %7, align 8, !tbaa !43
  %85 = mul i64 %84, 2
  %86 = getelementptr inbounds nuw [66 x i8], ptr %9, i64 0, i64 %85
  %87 = load i8, ptr %86, align 1, !tbaa !46
  %88 = zext i8 %87 to i32
  %89 = load ptr, ptr %6, align 8, !tbaa !45
  %90 = getelementptr inbounds i8, ptr %89, i64 0
  %91 = load i8, ptr %90, align 1, !tbaa !46
  %92 = zext i8 %91 to i32
  %93 = icmp eq i32 %88, %92
  br i1 %93, label %94, label %107

94:                                               ; preds = %80
  %95 = load i64, ptr %7, align 8, !tbaa !43
  %96 = mul i64 %95, 2
  %97 = add i64 %96, 1
  %98 = getelementptr inbounds nuw [66 x i8], ptr %9, i64 0, i64 %97
  %99 = load i8, ptr %98, align 1, !tbaa !46
  %100 = zext i8 %99 to i32
  %101 = load ptr, ptr %6, align 8, !tbaa !45
  %102 = getelementptr inbounds i8, ptr %101, i64 1
  %103 = load i8, ptr %102, align 1, !tbaa !46
  %104 = zext i8 %103 to i32
  %105 = icmp eq i32 %100, %104
  br i1 %105, label %106, label %107

106:                                              ; preds = %94
  store i32 5, ptr %12, align 4
  br label %114

107:                                              ; preds = %94, %80
  %108 = load i32, ptr %10, align 4, !tbaa !9
  %109 = icmp sgt i32 %108, 10000
  br i1 %109, label %110, label %113

110:                                              ; preds = %107
  %111 = load ptr, ptr %3, align 8, !tbaa !11
  %112 = getelementptr inbounds nuw %struct.archive_read, ptr %111, i32 0, i32 0
  call void (ptr, i32, ptr, ...) @archive_set_error(ptr noundef %112, i32 noundef -1, ptr noundef @.str.87)
  store i32 -25, ptr %2, align 4
  store i32 1, ptr %12, align 4
  br label %114

113:                                              ; preds = %107
  store i32 0, ptr %12, align 4
  br label %114

114:                                              ; preds = %113, %110, %106, %77, %56
  call void @llvm.lifetime.end.p0(i64 8, ptr %13) #11
  %115 = load i32, ptr %12, align 4
  switch i32 %115, label %208 [
    i32 0, label %116
    i32 5, label %120
  ]

116:                                              ; preds = %114
  br label %117

117:                                              ; preds = %116
  %118 = load i32, ptr %10, align 4, !tbaa !9
  %119 = add nsw i32 %118, 1
  store i32 %119, ptr %10, align 4, !tbaa !9
  br label %51

120:                                              ; preds = %114
  %121 = load ptr, ptr getelementptr inbounds nuw (%struct.archive_cryptor, ptr @__archive_cryptor, i32 0, i32 1), align 8, !tbaa !194
  %122 = load ptr, ptr %4, align 8, !tbaa !13
  %123 = getelementptr inbounds nuw %struct.zip, ptr %122, i32 0, i32 47
  %124 = getelementptr inbounds [66 x i8], ptr %9, i64 0, i64 0
  %125 = load i64, ptr %7, align 8, !tbaa !43
  %126 = call i32 %121(ptr noundef %123, ptr noundef %124, i64 noundef %125)
  store i32 %126, ptr %11, align 4, !tbaa !9
  %127 = load i32, ptr %11, align 4, !tbaa !9
  %128 = icmp ne i32 %127, 0
  br i1 %128, label %129, label %132

129:                                              ; preds = %120
  %130 = load ptr, ptr %3, align 8, !tbaa !11
  %131 = getelementptr inbounds nuw %struct.archive_read, ptr %130, i32 0, i32 0
  call void (ptr, i32, ptr, ...) @archive_set_error(ptr noundef %131, i32 noundef -1, ptr noundef @.str.86)
  store i32 -25, ptr %2, align 4
  store i32 1, ptr %12, align 4
  br label %208

132:                                              ; preds = %120
  %133 = load ptr, ptr @__archive_hmac, align 8, !tbaa !195
  %134 = load ptr, ptr %4, align 8, !tbaa !13
  %135 = getelementptr inbounds nuw %struct.zip, ptr %134, i32 0, i32 49
  %136 = getelementptr inbounds [66 x i8], ptr %9, i64 0, i64 0
  %137 = load i64, ptr %7, align 8, !tbaa !43
  %138 = getelementptr inbounds nuw i8, ptr %136, i64 %137
  %139 = load i64, ptr %7, align 8, !tbaa !43
  %140 = call i32 %133(ptr noundef %135, ptr noundef %138, i64 noundef %139)
  store i32 %140, ptr %11, align 4, !tbaa !9
  %141 = load i32, ptr %11, align 4, !tbaa !9
  %142 = icmp ne i32 %141, 0
  br i1 %142, label %143, label %150

143:                                              ; preds = %132
  %144 = load ptr, ptr getelementptr inbounds nuw (%struct.archive_cryptor, ptr @__archive_cryptor, i32 0, i32 3), align 8, !tbaa !72
  %145 = load ptr, ptr %4, align 8, !tbaa !13
  %146 = getelementptr inbounds nuw %struct.zip, ptr %145, i32 0, i32 47
  %147 = call i32 %144(ptr noundef %146)
  %148 = load ptr, ptr %3, align 8, !tbaa !11
  %149 = getelementptr inbounds nuw %struct.archive_read, ptr %148, i32 0, i32 0
  call void (ptr, i32, ptr, ...) @archive_set_error(ptr noundef %149, i32 noundef -1, ptr noundef @.str.88)
  store i32 -25, ptr %2, align 4
  store i32 1, ptr %12, align 4
  br label %208

150:                                              ; preds = %132
  %151 = load ptr, ptr %4, align 8, !tbaa !13
  %152 = getelementptr inbounds nuw %struct.zip, ptr %151, i32 0, i32 50
  store i8 1, ptr %152, align 8, !tbaa !74
  %153 = load ptr, ptr %4, align 8, !tbaa !13
  %154 = getelementptr inbounds nuw %struct.zip, ptr %153, i32 0, i32 48
  store i8 1, ptr %154, align 8, !tbaa !71
  %155 = load ptr, ptr %3, align 8, !tbaa !11
  %156 = load i64, ptr %8, align 8, !tbaa !43
  %157 = add i64 %156, 2
  %158 = call i64 @__archive_read_consume(ptr noundef %155, i64 noundef %157)
  %159 = load i64, ptr %8, align 8, !tbaa !43
  %160 = add i64 %159, 2
  %161 = add i64 %160, 10
  %162 = load ptr, ptr %4, align 8, !tbaa !13
  %163 = getelementptr inbounds nuw %struct.zip, ptr %162, i32 0, i32 11
  %164 = load i64, ptr %163, align 8, !tbaa !98
  %165 = sub i64 %164, %161
  store i64 %165, ptr %163, align 8, !tbaa !98
  %166 = load ptr, ptr %4, align 8, !tbaa !13
  %167 = getelementptr inbounds nuw %struct.zip, ptr %166, i32 0, i32 10
  %168 = load ptr, ptr %167, align 8, !tbaa !70
  %169 = getelementptr inbounds nuw %struct.zip_entry, ptr %168, i32 0, i32 13
  %170 = load i16, ptr %169, align 2, !tbaa !90
  %171 = zext i16 %170 to i32
  %172 = and i32 %171, 8
  %173 = icmp eq i32 0, %172
  br i1 %173, label %174, label %180

174:                                              ; preds = %150
  %175 = load ptr, ptr %4, align 8, !tbaa !13
  %176 = getelementptr inbounds nuw %struct.zip, ptr %175, i32 0, i32 11
  %177 = load i64, ptr %176, align 8, !tbaa !98
  %178 = icmp slt i64 %177, 0
  br i1 %178, label %179, label %180

179:                                              ; preds = %174
  br label %205

180:                                              ; preds = %174, %150
  %181 = load i64, ptr %8, align 8, !tbaa !43
  %182 = add i64 %181, 2
  %183 = add i64 %182, 10
  %184 = load ptr, ptr %4, align 8, !tbaa !13
  %185 = getelementptr inbounds nuw %struct.zip, ptr %184, i32 0, i32 12
  %186 = load i64, ptr %185, align 8, !tbaa !96
  %187 = add i64 %186, %183
  store i64 %187, ptr %185, align 8, !tbaa !96
  %188 = load ptr, ptr %4, align 8, !tbaa !13
  %189 = getelementptr inbounds nuw %struct.zip, ptr %188, i32 0, i32 43
  store i64 0, ptr %189, align 8, !tbaa !159
  %190 = load ptr, ptr %4, align 8, !tbaa !13
  %191 = getelementptr inbounds nuw %struct.zip, ptr %190, i32 0, i32 10
  %192 = load ptr, ptr %191, align 8, !tbaa !70
  %193 = getelementptr inbounds nuw %struct.zip_entry, ptr %192, i32 0, i32 18
  %194 = getelementptr inbounds nuw %struct.anon.0, ptr %193, i32 0, i32 2
  %195 = load i8, ptr %194, align 4, !tbaa !156
  %196 = load ptr, ptr %4, align 8, !tbaa !13
  %197 = getelementptr inbounds nuw %struct.zip, ptr %196, i32 0, i32 10
  %198 = load ptr, ptr %197, align 8, !tbaa !70
  %199 = getelementptr inbounds nuw %struct.zip_entry, ptr %198, i32 0, i32 14
  store i8 %195, ptr %199, align 8, !tbaa !91
  %200 = load ptr, ptr %3, align 8, !tbaa !11
  %201 = call i32 @zip_alloc_decryption_buffer(ptr noundef %200)
  store i32 %201, ptr %2, align 4
  store i32 1, ptr %12, align 4
  br label %208

202:                                              ; preds = %49
  %203 = load ptr, ptr %3, align 8, !tbaa !11
  %204 = getelementptr inbounds nuw %struct.archive_read, ptr %203, i32 0, i32 0
  call void (ptr, i32, ptr, ...) @archive_set_error(ptr noundef %204, i32 noundef 84, ptr noundef @.str.40)
  store i32 -30, ptr %2, align 4
  store i32 1, ptr %12, align 4
  br label %208

205:                                              ; preds = %179, %41
  %206 = load ptr, ptr %3, align 8, !tbaa !11
  %207 = getelementptr inbounds nuw %struct.archive_read, ptr %206, i32 0, i32 0
  call void (ptr, i32, ptr, ...) @archive_set_error(ptr noundef %207, i32 noundef 84, ptr noundef @.str.82)
  store i32 -30, ptr %2, align 4
  store i32 1, ptr %12, align 4
  br label %208

208:                                              ; preds = %205, %202, %180, %143, %129, %114, %30
  call void @llvm.lifetime.end.p0(i64 4, ptr %11) #11
  call void @llvm.lifetime.end.p0(i64 4, ptr %10) #11
  call void @llvm.lifetime.end.p0(i64 66, ptr %9) #11
  call void @llvm.lifetime.end.p0(i64 8, ptr %8) #11
  call void @llvm.lifetime.end.p0(i64 8, ptr %7) #11
  call void @llvm.lifetime.end.p0(i64 8, ptr %6) #11
  call void @llvm.lifetime.end.p0(i64 8, ptr %5) #11
  call void @llvm.lifetime.end.p0(i64 8, ptr %4) #11
  %209 = load i32, ptr %2, align 4
  ret i32 %209
}