; Function Attrs: nounwind uwtable
define internal fastcc range(i32 -30, 1) i32 @init_WinZip_AES_decryption(ptr noundef %0) unnamed_addr #0 {
  %2 = alloca [66 x i8], align 16
  %3 = getelementptr inbounds nuw i8, ptr %0, i64 2072
  %4 = load ptr, ptr %3, align 8, !tbaa !37
  %5 = load ptr, ptr %4, align 8, !tbaa !50
  call void @llvm.lifetime.start.p0(i64 66, ptr nonnull %2) #21
  %6 = getelementptr inbounds nuw i8, ptr %5, i64 8160
  %7 = load i8, ptr %6, align 8, !tbaa !61
  %.not = icmp eq i8 %7, 0
  %.057.sroa.gep = getelementptr inbounds nuw i8, ptr %2, i64 32
  %.057.sroa.gep65 = getelementptr inbounds nuw i8, ptr %2, i64 24
  %.057.sroa.gep66 = getelementptr inbounds nuw i8, ptr %2, i64 16
  br i1 %.not, label %8, label %.thread

8:                                                ; preds = %1
  %9 = getelementptr inbounds nuw i8, ptr %5, i64 8176
  %10 = load i8, ptr %9, align 8, !tbaa !64
  %.not60 = icmp eq i8 %10, 0
  br i1 %.not60, label %11, label %.thread

11:                                               ; preds = %8
  %12 = getelementptr inbounds nuw i8, ptr %5, i64 112
  %13 = load ptr, ptr %12, align 8, !tbaa !60
  %14 = getelementptr inbounds nuw i8, ptr %13, i64 136
  %15 = load i32, ptr %14, align 4, !tbaa !153
  switch i32 %15, label %86 [
    i32 1, label %18
    i32 2, label %16
    i32 3, label %17
  ]

16:                                               ; preds = %11
  br label %18

17:                                               ; preds = %11
  br label %18

18:                                               ; preds = %11, %17, %16
  %.057.sroa.phi = phi ptr [ %.057.sroa.gep, %17 ], [ %.057.sroa.gep65, %16 ], [ %.057.sroa.gep66, %11 ]
  %.057 = phi i64 [ 32, %17 ], [ 24, %16 ], [ 16, %11 ]
  %.056 = phi i64 [ 16, %17 ], [ 12, %16 ], [ 8, %11 ]
  %19 = or disjoint i64 %.056, 2
  %20 = tail call ptr @__archive_read_ahead(ptr noundef nonnull %0, i64 noundef %19, ptr noundef null) #21
  %21 = icmp eq ptr %20, null
  br i1 %21, label %85, label %.preheader

.preheader:                                       ; preds = %18
  %22 = tail call ptr @__archive_read_next_passphrase(ptr noundef nonnull %0) #21
  %23 = icmp eq ptr %22, null
  br i1 %23, label %._crit_edge, label %.lr.ph

.lr.ph:                                           ; preds = %.preheader
  %24 = load ptr, ptr @__archive_cryptor, align 8, !tbaa !176
  %25 = shl nuw nsw i64 %.057, 1
  %26 = or disjoint i64 %25, 2
  %27 = getelementptr inbounds nuw i8, ptr %20, i64 %.056
  %28 = getelementptr inbounds nuw [66 x i8], ptr %2, i64 0, i64 %25
  %29 = or disjoint i64 %25, 1
  %30 = getelementptr inbounds nuw [66 x i8], ptr %2, i64 0, i64 %29
  %31 = getelementptr inbounds nuw i8, ptr %27, i64 1
  br label %33

._crit_edge:                                      ; preds = %48, %.preheader
  %32 = phi ptr [ @.str.85, %.preheader ], [ @.str.84, %48 ]
  call void (ptr, i32, ptr, ...) @archive_set_error(ptr noundef nonnull %0, i32 noundef -1, ptr noundef nonnull %32) #21
  br label %.thread

33:                                               ; preds = %.lr.ph, %48
  %34 = phi ptr [ %22, %.lr.ph ], [ %50, %48 ]
  %.05573 = phi i32 [ 0, %.lr.ph ], [ %49, %48 ]
  call void @llvm.memset.p0.i64(ptr noundef nonnull align 16 dereferenceable(66) %2, i8 0, i64 66, i1 false)
  %35 = call i64 @strlen(ptr noundef nonnull dereferenceable(1) %34) #23
  %36 = call i32 %24(ptr noundef nonnull %34, i64 noundef %35, ptr noundef nonnull %20, i64 noundef %.056, i32 noundef 1000, ptr noundef nonnull %2, i64 noundef %26) #21
  %.not61 = icmp eq i32 %36, 0
  br i1 %.not61, label %38, label %37

37:                                               ; preds = %33
  call void (ptr, i32, ptr, ...) @archive_set_error(ptr noundef nonnull %0, i32 noundef -1, ptr noundef nonnull @.str.86) #21
  br label %.thread

38:                                               ; preds = %33
  %39 = load i8, ptr %28, align 16, !tbaa !36
  %40 = load i8, ptr %27, align 1, !tbaa !36
  %41 = icmp eq i8 %39, %40
  br i1 %41, label %42, label %46

42:                                               ; preds = %38
  %43 = load i8, ptr %30, align 1, !tbaa !36
  %44 = load i8, ptr %31, align 1, !tbaa !36
  %45 = icmp eq i8 %43, %44
  br i1 %45, label %52, label %46

46:                                               ; preds = %42, %38
  %exitcond = icmp eq i32 %.05573, 10001
  br i1 %exitcond, label %47, label %48

47:                                               ; preds = %46
  call void (ptr, i32, ptr, ...) @archive_set_error(ptr noundef nonnull %0, i32 noundef -1, ptr noundef nonnull @.str.87) #21
  br label %.thread

48:                                               ; preds = %46
  %49 = add nuw nsw i32 %.05573, 1
  %50 = call ptr @__archive_read_next_passphrase(ptr noundef nonnull %0) #21
  %51 = icmp eq ptr %50, null
  br i1 %51, label %._crit_edge, label %33

52:                                               ; preds = %42
  %53 = load ptr, ptr getelementptr inbounds nuw (i8, ptr @__archive_cryptor, i64 8), align 8, !tbaa !177
  %54 = getelementptr inbounds nuw i8, ptr %5, i64 8072
  %55 = call i32 %53(ptr noundef nonnull %54, ptr noundef nonnull %2, i64 noundef %.057) #21
  %.not63 = icmp eq i32 %55, 0
  br i1 %.not63, label %57, label %56

56:                                               ; preds = %52
  call void (ptr, i32, ptr, ...) @archive_set_error(ptr noundef nonnull %0, i32 noundef -1, ptr noundef nonnull @.str.86) #21
  br label %.thread

57:                                               ; preds = %52
  %58 = load ptr, ptr @__archive_hmac, align 8, !tbaa !178
  %59 = getelementptr inbounds nuw i8, ptr %5, i64 8168
  %60 = call i32 %58(ptr noundef nonnull %59, ptr noundef nonnull %.057.sroa.phi, i64 noundef %.057) #21
  %.not64 = icmp eq i32 %60, 0
  br i1 %.not64, label %64, label %61

61:                                               ; preds = %57
  %62 = load ptr, ptr getelementptr inbounds nuw (i8, ptr @__archive_cryptor, i64 24), align 8, !tbaa !62
  %63 = call i32 %62(ptr noundef nonnull %54) #21
  call void (ptr, i32, ptr, ...) @archive_set_error(ptr noundef nonnull %0, i32 noundef -1, ptr noundef nonnull @.str.88) #21
  br label %.thread

64:                                               ; preds = %57
  store i8 1, ptr %9, align 8, !tbaa !64
  store i8 1, ptr %6, align 8, !tbaa !61
  %65 = call i64 @__archive_read_consume(ptr noundef nonnull %0, i64 noundef %19) #21
  %66 = add nuw nsw i64 %.056, 12
  %67 = getelementptr inbounds nuw i8, ptr %5, i64 120
  %68 = load i64, ptr %67, align 8, !tbaa !92
  %69 = sub i64 %68, %66
  store i64 %69, ptr %67, align 8, !tbaa !92
  %70 = load ptr, ptr %12, align 8, !tbaa !60
  %71 = getelementptr inbounds nuw i8, ptr %70, i64 126
  %72 = load i16, ptr %71, align 2, !tbaa !80
  %73 = and i16 %72, 8
  %74 = icmp eq i16 %73, 0
  %75 = icmp slt i64 %69, 0
  %or.cond = select i1 %74, i1 %75, i1 false
  br i1 %or.cond, label %86, label %76

76:                                               ; preds = %64
  %77 = getelementptr inbounds nuw i8, ptr %5, i64 128
  %78 = load i64, ptr %77, align 8, !tbaa !88
  %79 = add i64 %78, %66
  store i64 %79, ptr %77, align 8, !tbaa !88
  %80 = getelementptr inbounds nuw i8, ptr %5, i64 8040
  store i64 0, ptr %80, align 8, !tbaa !157
  %81 = getelementptr inbounds nuw i8, ptr %70, i64 140
  %82 = load i8, ptr %81, align 4, !tbaa !154
  %83 = getelementptr inbounds nuw i8, ptr %70, i64 128
  store i8 %82, ptr %83, align 8, !tbaa !81
  %84 = call fastcc i32 @zip_alloc_decryption_buffer(ptr noundef nonnull %0)
  br label %.thread

85:                                               ; preds = %18
  tail call void (ptr, i32, ptr, ...) @archive_set_error(ptr noundef nonnull %0, i32 noundef 84, ptr noundef nonnull @.str.40) #21
  br label %.thread

86:                                               ; preds = %64, %11
  call void (ptr, i32, ptr, ...) @archive_set_error(ptr noundef nonnull %0, i32 noundef 84, ptr noundef nonnull @.str.82) #21
  br label %.thread

.thread:                                          ; preds = %47, %37, %._crit_edge, %1, %8, %86, %85, %76, %61, %56
  %.0 = phi i32 [ -30, %86 ], [ -30, %85 ], [ -25, %56 ], [ -25, %61 ], [ %84, %76 ], [ 0, %8 ], [ 0, %1 ], [ -25, %._crit_edge ], [ -25, %37 ], [ -25, %47 ]
  call void @llvm.lifetime.end.p0(i64 66, ptr nonnull %2) #21
  ret i32 %.0
}